; Function Attrs: nounwind uwtable
define dso_local zeroext i1 @preempt_p_preemptable(ptr noundef readonly captures(none) %0, ptr noundef readonly captures(none) %1) local_unnamed_addr #0 {
  %3 = getelementptr inbounds nuw i8, ptr %0, i64 768
  %4 = load ptr, ptr %3, align 8
  %5 = getelementptr inbounds nuw i8, ptr %1, i64 768
  %6 = load ptr, ptr %5, align 8
  %7 = icmp ne ptr %4, null
  %8 = icmp ne ptr %6, null
  %or.cond = select i1 %7, i1 %8, i1 false
  br i1 %or.cond, label %9, label %34

9:                                                ; preds = %2
  %10 = getelementptr inbounds nuw i8, ptr %6, i64 16
  %11 = load i32, ptr %10, align 8
  %12 = getelementptr inbounds nuw i8, ptr %4, i64 16
  %13 = load i32, ptr %12, align 8
  %14 = icmp eq i32 %11, %13
  br i1 %14, label %15, label %28

15:                                               ; preds = %9
  %16 = getelementptr inbounds nuw i8, ptr %6, i64 288
  %17 = load i16, ptr %16, align 8
  %18 = and i16 %17, 16384
  %.not19 = icmp eq i16 %18, 0
  br i1 %.not19, label %19, label %22

19:                                               ; preds = %15
  %20 = load i16, ptr getelementptr inbounds nuw (i8, ptr @slurm_conf, i64 796), align 4
  %21 = and i16 %20, 16384
  %.not20 = icmp eq i16 %21, 0
  br i1 %.not20, label %34, label %22

22:                                               ; preds = %19, %15
  %23 = getelementptr inbounds nuw i8, ptr %1, i64 720
  %24 = load i32, ptr %23, align 8
  %25 = getelementptr inbounds nuw i8, ptr %0, i64 720
  %26 = load i32, ptr %25, align 8
  %27 = icmp ugt i32 %24, %26
  br label %34

28:                                               ; preds = %9
  %29 = getelementptr inbounds nuw i8, ptr %6, i64 272
  %30 = load ptr, ptr %29, align 8
  %.not = icmp eq ptr %30, null
  br i1 %.not, label %34, label %31

31:                                               ; preds = %28
  %32 = zext i32 %13 to i64
  %33 = tail call i32 @slurm_bit_test(ptr noundef nonnull %30, i64 noundef %32) #4
  %.not18 = icmp ne i32 %33, 0
  br label %34

34:                                               ; preds = %31, %28, %19, %2, %22
  %.0 = phi i1 [ %27, %22 ], [ false, %2 ], [ false, %19 ], [ false, %28 ], [ %.not18, %31 ]
  ret i1 %.0
}